target datalayout = "e-m:e-p270:32:32-p271:32:32-p272:64:64-i64:64-i128:128-f80:128-n8:16:32:64-S128"
target triple = "x86_64-pc-linux-gnu"

%"class.Imf_3_4::RgbaOutputFile" = type { ptr, ptr, ptr }
%"class.Imath_3_2::Vec2" = type { float, float }

; Function Attrs: inlinehint mustprogress nounwind uwtable
define linkonce_odr dso_local void @_ZN9Imath_3_24Vec2IfEC2Eff(ptr noundef nonnull align 4 dereferenceable(8) %0, float noundef %1, float noundef %2) unnamed_addr #6 comdat align 2 {
  %4 = alloca ptr, align 8
  %5 = alloca float, align 4
  %6 = alloca float, align 4
  store ptr %0, ptr %4, align 8, !tbaa !13
  store float %1, ptr %5, align 4, !tbaa !15
  store float %2, ptr %6, align 4, !tbaa !15
  %7 = load ptr, ptr %4, align 8
  %8 = getelementptr inbounds nuw %"class.Imath_3_2::Vec2", ptr %7, i32 0, i32 0
  %9 = load float, ptr %5, align 4, !tbaa !15
  store float %9, ptr %8, align 4, !tbaa !17
  %10 = getelementptr inbounds nuw %"class.Imath_3_2::Vec2", ptr %7, i32 0, i32 1
  %11 = load float, ptr %6, align 4, !tbaa !15
  store float %11, ptr %10, align 4, !tbaa !19
  ret void
}

; Function Attrs: mustprogress uwtable
define dso_local void @_Z10writeRgba1PKcPKN7Imf_3_44RgbaEii(ptr noundef %0, ptr noundef %1, i32 noundef %2, i32 noundef %3) #4 personality ptr @__gxx_personality_v0 {
  %5 = alloca ptr, align 8
  %6 = alloca ptr, align 8
  %7 = alloca i32, align 4
  %8 = alloca i32, align 4
  %9 = alloca %"class.Imf_3_4::RgbaOutputFile", align 8
  %10 = alloca %"class.Imath_3_2::Vec2", align 4
  %11 = alloca ptr, align 8
  %12 = alloca i32, align 4
  store ptr %0, ptr %5, align 8, !tbaa !4
  store ptr %1, ptr %6, align 8, !tbaa !9
  store i32 %2, ptr %7, align 4, !tbaa !11
  store i32 %3, ptr %8, align 4, !tbaa !11
  call void @llvm.lifetime.start.p0(i64 24, ptr %9) #3
  %13 = load ptr, ptr %5, align 8, !tbaa !4
  %14 = load i32, ptr %7, align 4, !tbaa !11
  %15 = load i32, ptr %8, align 4, !tbaa !11
  call void @_ZN9Imath_3_24Vec2IfEC2Eff(ptr noundef nonnull align 4 dereferenceable(8) %10, float noundef 0.000000e+00, float noundef 0.000000e+00) #3
  %16 = call noundef i32 @_ZN7Imf_3_417globalThreadCountEv()
  call void @_ZN7Imf_3_414RgbaOutputFileC1EPKciiNS_12RgbaChannelsEfN9Imath_3_24Vec2IfEEfNS_9LineOrderENS_11CompressionEi(ptr noundef nonnull align 8 dereferenceable(24) %9, ptr noundef %13, i32 noundef %14, i32 noundef %15, i32 noundef 15, float noundef 1.000000e+00, ptr noundef %10, float noundef 1.000000e+00, i32 noundef 0, i32 noundef 4, i32 noundef %16)
  %17 = load ptr, ptr %6, align 8, !tbaa !9
  %18 = load i32, ptr %7, align 4, !tbaa !11
  %19 = sext i32 %18 to i64
  invoke void @_ZN7Imf_3_414RgbaOutputFile14setFrameBufferEPKNS_4RgbaEmm(ptr noundef nonnull align 8 dereferenceable(24) %9, ptr noundef %17, i64 noundef 1, i64 noundef %19)
          to label %20 unwind label %23

20:                                               ; preds = %4
  %21 = load i32, ptr %8, align 4, !tbaa !11
  invoke void @_ZN7Imf_3_414RgbaOutputFile11writePixelsEi(ptr noundef nonnull align 8 dereferenceable(24) %9, i32 noundef %21)
          to label %22 unwind label %23

22:                                               ; preds = %20
  call void @_ZN7Imf_3_414RgbaOutputFileD1Ev(ptr noundef nonnull align 8 dereferenceable(24) %9) #3
  call void @llvm.lifetime.end.p0(i64 24, ptr %9) #3
  ret void

23:                                               ; preds = %20, %4
  %24 = landingpad { ptr, i32 }
          cleanup
  %25 = extractvalue { ptr, i32 } %24, 0
  store ptr %25, ptr %11, align 8
  %26 = extractvalue { ptr, i32 } %24, 1
  store i32 %26, ptr %12, align 4
  call void @_ZN7Imf_3_414RgbaOutputFileD1Ev(ptr noundef nonnull align 8 dereferenceable(24) %9) #3
  call void @llvm.lifetime.end.p0(i64 24, ptr %9) #3
  br label %27

27:                                               ; preds = %23
  %28 = load ptr, ptr %11, align 8
  %29 = load i32, ptr %12, align 4
  %30 = insertvalue { ptr, i32 } poison, ptr %28, 0
  %31 = insertvalue { ptr, i32 } %30, i32 %29, 1
  resume { ptr, i32 } %31
}