; Function Attrs: mustprogress uwtable
define dso_local void @_Z10writeRgba1PKcPKN7Imf_3_44RgbaEii(ptr noundef %0, ptr noundef %1, i32 noundef %2, i32 noundef %3) local_unnamed_addr #3 personality ptr @__gxx_personality_v0 {
  %5 = alloca %"class.Imf_3_4::RgbaOutputFile", align 8
  %6 = alloca %"class.Imath_3_2::Vec2", align 4
  call void @llvm.lifetime.start.p0(i64 24, ptr nonnull %5) #16
  store float 0.000000e+00, ptr %6, align 4, !tbaa !4
  %7 = getelementptr inbounds nuw i8, ptr %6, i64 4
  store float 0.000000e+00, ptr %7, align 4, !tbaa !9
  %8 = tail call noundef i32 @_ZN7Imf_3_417globalThreadCountEv()
  call void @_ZN7Imf_3_414RgbaOutputFileC1EPKciiNS_12RgbaChannelsEfN9Imath_3_24Vec2IfEEfNS_9LineOrderENS_11CompressionEi(ptr noundef nonnull align 8 dereferenceable(24) %5, ptr noundef %0, i32 noundef %2, i32 noundef %3, i32 noundef 15, float noundef 1.000000e+00, ptr noundef nonnull %6, float noundef 1.000000e+00, i32 noundef 0, i32 noundef 4, i32 noundef %8)
  %9 = sext i32 %2 to i64
  invoke void @_ZN7Imf_3_414RgbaOutputFile14setFrameBufferEPKNS_4RgbaEmm(ptr noundef nonnull align 8 dereferenceable(24) %5, ptr noundef %1, i64 noundef 1, i64 noundef %9)
          to label %10 unwind label %12

10:                                               ; preds = %4
  invoke void @_ZN7Imf_3_414RgbaOutputFile11writePixelsEi(ptr noundef nonnull align 8 dereferenceable(24) %5, i32 noundef %3)
          to label %11 unwind label %12

11:                                               ; preds = %10
  call void @_ZN7Imf_3_414RgbaOutputFileD1Ev(ptr noundef nonnull align 8 dereferenceable(24) %5) #16
  call void @llvm.lifetime.end.p0(i64 24, ptr nonnull %5) #16
  ret void

12:                                               ; preds = %10, %4
  %13 = landingpad { ptr, i32 }
          cleanup
  call void @_ZN7Imf_3_414RgbaOutputFileD1Ev(ptr noundef nonnull align 8 dereferenceable(24) %5) #16
  call void @llvm.lifetime.end.p0(i64 24, ptr nonnull %5) #16
  resume { ptr, i32 } %13
}